target datalayout = "e-m:e-p270:32:32-p271:32:32-p272:64:64-i64:64-i128:128-f80:128-n8:16:32:64-S128"
target triple = "x86_64-pc-linux-gnu"

%struct.siv128_context = type { %union.siv_block_u, %union.siv_block_u, ptr, ptr, ptr, i32, i32 }
%union.siv_block_u = type { [2 x i64] }

; Function Attrs: nounwind uwtable
define i32 @ossl_siv128_cleanup(ptr noundef %0) #0 {
  %2 = alloca ptr, align 8
  store ptr %0, ptr %2, align 8, !tbaa !14
  %3 = load ptr, ptr %2, align 8, !tbaa !14
  %4 = icmp ne ptr %3, null
  br i1 %4, label %5, label %29

5:                                                ; preds = %1
  %6 = load ptr, ptr %2, align 8, !tbaa !14
  %7 = getelementptr inbounds nuw %struct.siv128_context, ptr %6, i32 0, i32 2
  %8 = load ptr, ptr %7, align 8, !tbaa !20
  call void @EVP_CIPHER_CTX_free(ptr noundef %8)
  %9 = load ptr, ptr %2, align 8, !tbaa !14
  %10 = getelementptr inbounds nuw %struct.siv128_context, ptr %9, i32 0, i32 2
  store ptr null, ptr %10, align 8, !tbaa !20
  %11 = load ptr, ptr %2, align 8, !tbaa !14
  %12 = getelementptr inbounds nuw %struct.siv128_context, ptr %11, i32 0, i32 4
  %13 = load ptr, ptr %12, align 8, !tbaa !24
  call void @EVP_MAC_CTX_free(ptr noundef %13)
  %14 = load ptr, ptr %2, align 8, !tbaa !14
  %15 = getelementptr inbounds nuw %struct.siv128_context, ptr %14, i32 0, i32 4
  store ptr null, ptr %15, align 8, !tbaa !24
  %16 = load ptr, ptr %2, align 8, !tbaa !14
  %17 = getelementptr inbounds nuw %struct.siv128_context, ptr %16, i32 0, i32 3
  %18 = load ptr, ptr %17, align 8, !tbaa !25
  call void @EVP_MAC_free(ptr noundef %18)
  %19 = load ptr, ptr %2, align 8, !tbaa !14
  %20 = getelementptr inbounds nuw %struct.siv128_context, ptr %19, i32 0, i32 3
  store ptr null, ptr %20, align 8, !tbaa !25
  %21 = load ptr, ptr %2, align 8, !tbaa !14
  %22 = getelementptr inbounds nuw %struct.siv128_context, ptr %21, i32 0, i32 0
  call void @OPENSSL_cleanse(ptr noundef %22, i64 noundef 16)
  %23 = load ptr, ptr %2, align 8, !tbaa !14
  %24 = getelementptr inbounds nuw %struct.siv128_context, ptr %23, i32 0, i32 1
  call void @OPENSSL_cleanse(ptr noundef %24, i64 noundef 16)
  %25 = load ptr, ptr %2, align 8, !tbaa !14
  %26 = getelementptr inbounds nuw %struct.siv128_context, ptr %25, i32 0, i32 5
  store i32 -1, ptr %26, align 8, !tbaa !28
  %27 = load ptr, ptr %2, align 8, !tbaa !14
  %28 = getelementptr inbounds nuw %struct.siv128_context, ptr %27, i32 0, i32 6
  store i32 1, ptr %28, align 4, !tbaa !29
  br label %29

29:                                               ; preds = %5, %1
  ret i32 1
}