; Function Attrs: nounwind uwtable
define noundef i32 @ossl_siv128_cleanup(ptr noundef %0) local_unnamed_addr #0 {
  %.not = icmp eq ptr %0, null
  br i1 %.not, label %12, label %2

2:                                                ; preds = %1
  %3 = getelementptr inbounds nuw i8, ptr %0, i64 32
  %4 = load ptr, ptr %3, align 8, !tbaa !7
  tail call void @EVP_CIPHER_CTX_free(ptr noundef %4) #10
  store ptr null, ptr %3, align 8, !tbaa !7
  %5 = getelementptr inbounds nuw i8, ptr %0, i64 48
  %6 = load ptr, ptr %5, align 8, !tbaa !14
  tail call void @EVP_MAC_CTX_free(ptr noundef %6) #10
  store ptr null, ptr %5, align 8, !tbaa !14
  %7 = getelementptr inbounds nuw i8, ptr %0, i64 40
  %8 = load ptr, ptr %7, align 8, !tbaa !15
  tail call void @EVP_MAC_free(ptr noundef %8) #10
  store ptr null, ptr %7, align 8, !tbaa !15
  tail call void @OPENSSL_cleanse(ptr noundef nonnull %0, i64 noundef 16) #10
  %9 = getelementptr inbounds nuw i8, ptr %0, i64 16
  tail call void @OPENSSL_cleanse(ptr noundef nonnull %9, i64 noundef 16) #10
  %10 = getelementptr inbounds nuw i8, ptr %0, i64 56
  store i32 -1, ptr %10, align 8, !tbaa !21
  %11 = getelementptr inbounds nuw i8, ptr %0, i64 60
  store i32 1, ptr %11, align 4, !tbaa !22
  br label %12

12:                                               ; preds = %2, %1
  ret i32 1
}